; Function Attrs: mustprogress uwtable
define dso_local void @_ZN11V3LexerBase19yy_switch_to_bufferEP15yy_buffer_state(ptr noundef nonnull align 8 dereferenceable(732) %0, ptr noundef %1) unnamed_addr #4 align 2 {
  %3 = getelementptr inbounds i8, ptr %0, i64 648
  %4 = load ptr, ptr %3, align 8
  %.not.i = icmp eq ptr %4, null
  br i1 %.not.i, label %5, label %15

5:                                                ; preds = %2
  %6 = tail call noalias noundef dereferenceable_or_null(8) ptr @malloc(i64 noundef 8) #31
  store ptr %6, ptr %3, align 8
  %.not7.i = icmp eq ptr %6, null
  br i1 %.not7.i, label %7, label %11

7:                                                ; preds = %5
  %8 = load ptr, ptr %0, align 8
  %9 = getelementptr inbounds i8, ptr %8, i64 112
  %10 = load ptr, ptr %9, align 8
  tail call void %10(ptr noundef nonnull align 8 dereferenceable(732) %0, ptr noundef nonnull @.str.29)
  %.pre10.i = load ptr, ptr %3, align 8
  br label %11

11:                                               ; preds = %7, %5
  %12 = phi ptr [ %.pre10.i, %7 ], [ %6, %5 ]
  store i64 0, ptr %12, align 8
  %13 = getelementptr inbounds i8, ptr %0, i64 640
  store i64 1, ptr %13, align 8
  %14 = getelementptr inbounds i8, ptr %0, i64 632
  store i64 0, ptr %14, align 8
  br label %_ZN11V3LexerBase21yyensure_buffer_stackEv.exit

15:                                               ; preds = %2
  %16 = getelementptr inbounds i8, ptr %0, i64 632
  %17 = load i64, ptr %16, align 8
  %18 = getelementptr inbounds i8, ptr %0, i64 640
  %19 = load i64, ptr %18, align 8
  %20 = add i64 %19, -1
  %.not8.i = icmp ult i64 %17, %20
  br i1 %.not8.i, label %_ZN11V3LexerBase21yyensure_buffer_stackEv.exit, label %21

21:                                               ; preds = %15
  %22 = add i64 %19, 8
  %23 = shl i64 %22, 3
  %24 = tail call noalias noundef ptr @realloc(ptr noundef nonnull %4, i64 noundef %23) #32
  store ptr %24, ptr %3, align 8
  %.not9.i = icmp eq ptr %24, null
  br i1 %.not9.i, label %25, label %29

25:                                               ; preds = %21
  %26 = load ptr, ptr %0, align 8
  %27 = getelementptr inbounds i8, ptr %26, i64 112
  %28 = load ptr, ptr %27, align 8
  tail call void %28(ptr noundef nonnull align 8 dereferenceable(732) %0, ptr noundef nonnull @.str.29)
  %.pre.i = load ptr, ptr %3, align 8
  br label %29

29:                                               ; preds = %25, %21
  %30 = phi ptr [ %.pre.i, %25 ], [ %24, %21 ]
  %31 = load i64, ptr %18, align 8
  %32 = getelementptr inbounds ptr, ptr %30, i64 %31
  tail call void @llvm.memset.p0.i64(ptr noundef nonnull align 8 dereferenceable(64) %32, i8 0, i64 64, i1 false)
  store i64 %22, ptr %18, align 8
  br label %_ZN11V3LexerBase21yyensure_buffer_stackEv.exit

_ZN11V3LexerBase21yyensure_buffer_stackEv.exit:   ; preds = %11, %15, %29
  %33 = load ptr, ptr %3, align 8
  %.not = icmp eq ptr %33, null
  br i1 %.not, label %34, label %.thread

34:                                               ; preds = %_ZN11V3LexerBase21yyensure_buffer_stackEv.exit
  %35 = icmp eq ptr %1, null
  tail call void @llvm.assume(i1 %35)
  br label %89

.thread:                                          ; preds = %_ZN11V3LexerBase21yyensure_buffer_stackEv.exit
  %36 = getelementptr inbounds i8, ptr %0, i64 632
  %37 = load i64, ptr %36, align 8
  %38 = getelementptr inbounds ptr, ptr %33, i64 %37
  %39 = load ptr, ptr %38, align 8
  %40 = icmp eq ptr %39, %1
  br i1 %40, label %89, label %41

41:                                               ; preds = %.thread
  %42 = icmp eq ptr %39, null
  br i1 %42, label %.critedge, label %43

43:                                               ; preds = %41
  %44 = getelementptr inbounds i8, ptr %0, i64 600
  %45 = load i8, ptr %44, align 8
  %46 = getelementptr inbounds i8, ptr %0, i64 608
  %47 = load ptr, ptr %46, align 8
  store i8 %45, ptr %47, align 1
  %48 = load ptr, ptr %46, align 8
  %49 = load ptr, ptr %3, align 8
  %50 = load i64, ptr %36, align 8
  %51 = getelementptr inbounds ptr, ptr %49, i64 %50
  %52 = load ptr, ptr %51, align 8
  %53 = getelementptr inbounds i8, ptr %52, i64 16
  store ptr %48, ptr %53, align 8
  %54 = getelementptr inbounds i8, ptr %0, i64 604
  %55 = load i32, ptr %54, align 4
  %56 = load ptr, ptr %3, align 8
  %57 = load i64, ptr %36, align 8
  %58 = getelementptr inbounds ptr, ptr %56, i64 %57
  %59 = load ptr, ptr %58, align 8
  %60 = getelementptr inbounds i8, ptr %59, i64 28
  store i32 %55, ptr %60, align 4
  %.pre = load ptr, ptr %3, align 8
  br label %.critedge

.critedge:                                        ; preds = %43, %41
  %61 = phi ptr [ %.pre, %43 ], [ %33, %41 ]
  %62 = getelementptr inbounds i8, ptr %0, i64 632
  %63 = load i64, ptr %62, align 8
  %64 = getelementptr inbounds ptr, ptr %61, i64 %63
  store ptr %1, ptr %64, align 8
  %65 = load ptr, ptr %3, align 8
  %66 = load i64, ptr %62, align 8
  %67 = getelementptr inbounds ptr, ptr %65, i64 %66
  %68 = load ptr, ptr %67, align 8
  %69 = getelementptr inbounds i8, ptr %68, i64 28
  %70 = load i32, ptr %69, align 4
  %71 = getelementptr inbounds i8, ptr %0, i64 604
  store i32 %70, ptr %71, align 4
  %72 = load ptr, ptr %67, align 8
  %73 = getelementptr inbounds i8, ptr %72, i64 16
  %74 = load ptr, ptr %73, align 8
  %75 = getelementptr inbounds i8, ptr %0, i64 608
  store ptr %74, ptr %75, align 8
  %76 = getelementptr inbounds i8, ptr %0, i64 8
  store ptr %74, ptr %76, align 8
  %77 = getelementptr inbounds i8, ptr %0, i64 48
  %78 = load ptr, ptr %77, align 8
  %79 = getelementptr i8, ptr %78, i64 -24
  %80 = load i64, ptr %79, align 8
  %81 = getelementptr inbounds i8, ptr %77, i64 %80
  %82 = load ptr, ptr %67, align 8
  %83 = load ptr, ptr %82, align 8
  %84 = tail call noundef ptr @_ZNSt9basic_iosIcSt11char_traitsIcEE5rdbufEPSt15basic_streambufIcS1_E(ptr noundef nonnull align 8 dereferenceable(264) %81, ptr noundef %83)
  %85 = load ptr, ptr %75, align 8
  %86 = load i8, ptr %85, align 1
  %87 = getelementptr inbounds i8, ptr %0, i64 600
  store i8 %86, ptr %87, align 8
  %88 = getelementptr inbounds i8, ptr %0, i64 624
  store i32 1, ptr %88, align 8
  br label %89

89:                                               ; preds = %34, %.thread, %.critedge
  ret void
}